target datalayout = "e-m:e-p270:32:32-p271:32:32-p272:64:64-i64:64-i128:128-f80:128-n8:16:32:64-S128"
target triple = "x86_64-pc-linux-gnu"

%struct.gistxlogPageSplit = type { i32, i64, i8, i16, i8 }
%struct.SplitPageLayout = type { %struct.gistxlogPage, ptr, i32, ptr, ptr, i32, ptr }
%struct.gistxlogPage = type { i32, i32 }

; Function Attrs: inlinehint nounwind uwtable
define internal zeroext i1 @BufferIsValid(i32 noundef %0) #2 {
  %2 = alloca i32, align 4
  store i32 %0, ptr %2, align 4
  %3 = load i32, ptr %2, align 4
  %4 = icmp ne i32 %3, 0
  ret i1 %4
}

; Function Attrs: nounwind uwtable
define dso_local i64 @gistXLogSplit(i1 noundef zeroext %0, ptr noundef %1, i32 noundef %2, i64 noundef %3, i32 noundef %4, i1 noundef zeroext %5) #0 {
  %7 = alloca i8, align 1
  %8 = alloca ptr, align 8
  %9 = alloca i32, align 4
  %10 = alloca i64, align 8
  %11 = alloca i32, align 4
  %12 = alloca i8, align 1
  %13 = alloca %struct.gistxlogPageSplit, align 8
  %14 = alloca ptr, align 8
  %15 = alloca i32, align 4
  %16 = alloca i64, align 8
  %17 = alloca i32, align 4
  %18 = zext i1 %0 to i8
  store i8 %18, ptr %7, align 1
  store ptr %1, ptr %8, align 8
  store i32 %2, ptr %9, align 4
  store i64 %3, ptr %10, align 8
  store i32 %4, ptr %11, align 4
  %19 = zext i1 %5 to i8
  store i8 %19, ptr %12, align 1
  call void @llvm.lifetime.start.p0(i64 24, ptr %13) #6
  call void @llvm.lifetime.start.p0(i64 8, ptr %14) #6
  call void @llvm.lifetime.start.p0(i64 4, ptr %15) #6
  store i32 0, ptr %15, align 4
  call void @llvm.lifetime.start.p0(i64 8, ptr %16) #6
  call void @llvm.lifetime.start.p0(i64 4, ptr %17) #6
  %20 = load ptr, ptr %8, align 8
  store ptr %20, ptr %14, align 8
  br label %21

21:                                               ; preds = %27, %6
  %22 = load ptr, ptr %14, align 8
  %23 = icmp ne ptr %22, null
  br i1 %23, label %24, label %31

24:                                               ; preds = %21
  %25 = load i32, ptr %15, align 4
  %26 = add i32 %25, 1
  store i32 %26, ptr %15, align 4
  br label %27

27:                                               ; preds = %24
  %28 = load ptr, ptr %14, align 8
  %29 = getelementptr inbounds nuw %struct.SplitPageLayout, ptr %28, i32 0, i32 6
  %30 = load ptr, ptr %29, align 8
  store ptr %30, ptr %14, align 8
  br label %21, !llvm.loop !9

31:                                               ; preds = %21
  %32 = load i32, ptr %9, align 4
  %33 = getelementptr inbounds nuw %struct.gistxlogPageSplit, ptr %13, i32 0, i32 0
  store i32 %32, ptr %33, align 8
  %34 = load i64, ptr %10, align 8
  %35 = getelementptr inbounds nuw %struct.gistxlogPageSplit, ptr %13, i32 0, i32 1
  store i64 %34, ptr %35, align 8
  %36 = load i8, ptr %7, align 1, !range !6, !noundef !7
  %37 = trunc i8 %36 to i1
  %38 = getelementptr inbounds nuw %struct.gistxlogPageSplit, ptr %13, i32 0, i32 2
  %39 = zext i1 %37 to i8
  store i8 %39, ptr %38, align 8
  %40 = load i32, ptr %15, align 4
  %41 = trunc i32 %40 to i16
  %42 = getelementptr inbounds nuw %struct.gistxlogPageSplit, ptr %13, i32 0, i32 3
  store i16 %41, ptr %42, align 2
  %43 = load i8, ptr %12, align 1, !range !6, !noundef !7
  %44 = trunc i8 %43 to i1
  %45 = getelementptr inbounds nuw %struct.gistxlogPageSplit, ptr %13, i32 0, i32 4
  %46 = zext i1 %44 to i8
  store i8 %46, ptr %45, align 4
  call void @XLogBeginInsert()
  %47 = load i32, ptr %11, align 4
  %48 = call zeroext i1 @BufferIsValid(i32 noundef %47)
  br i1 %48, label %49, label %51

49:                                               ; preds = %31
  %50 = load i32, ptr %11, align 4
  call void @XLogRegisterBuffer(i8 noundef zeroext 0, i32 noundef %50, i8 noundef zeroext 8)
  br label %51

51:                                               ; preds = %49, %31
  call void @XLogRegisterData(ptr noundef %13, i32 noundef 24)
  store i32 1, ptr %17, align 4
  %52 = load ptr, ptr %8, align 8
  store ptr %52, ptr %14, align 8
  br label %53

53:                                               ; preds = %77, %51
  %54 = load ptr, ptr %14, align 8
  %55 = icmp ne ptr %54, null
  br i1 %55, label %56, label %81

56:                                               ; preds = %53
  %57 = load i32, ptr %17, align 4
  %58 = trunc i32 %57 to i8
  %59 = load ptr, ptr %14, align 8
  %60 = getelementptr inbounds nuw %struct.SplitPageLayout, ptr %59, i32 0, i32 5
  %61 = load i32, ptr %60, align 8
  call void @XLogRegisterBuffer(i8 noundef zeroext %58, i32 noundef %61, i8 noundef zeroext 6)
  %62 = load i32, ptr %17, align 4
  %63 = trunc i32 %62 to i8
  %64 = load ptr, ptr %14, align 8
  %65 = getelementptr inbounds nuw %struct.SplitPageLayout, ptr %64, i32 0, i32 0
  %66 = getelementptr inbounds nuw %struct.gistxlogPage, ptr %65, i32 0, i32 1
  call void @XLogRegisterBufData(i8 noundef zeroext %63, ptr noundef %66, i32 noundef 4)
  %67 = load i32, ptr %17, align 4
  %68 = trunc i32 %67 to i8
  %69 = load ptr, ptr %14, align 8
  %70 = getelementptr inbounds nuw %struct.SplitPageLayout, ptr %69, i32 0, i32 1
  %71 = load ptr, ptr %70, align 8
  %72 = load ptr, ptr %14, align 8
  %73 = getelementptr inbounds nuw %struct.SplitPageLayout, ptr %72, i32 0, i32 2
  %74 = load i32, ptr %73, align 8
  call void @XLogRegisterBufData(i8 noundef zeroext %68, ptr noundef %71, i32 noundef %74)
  %75 = load i32, ptr %17, align 4
  %76 = add i32 %75, 1
  store i32 %76, ptr %17, align 4
  br label %77

77:                                               ; preds = %56
  %78 = load ptr, ptr %14, align 8
  %79 = getelementptr inbounds nuw %struct.SplitPageLayout, ptr %78, i32 0, i32 6
  %80 = load ptr, ptr %79, align 8
  store ptr %80, ptr %14, align 8
  br label %53, !llvm.loop !10

81:                                               ; preds = %53
  %82 = call i64 @XLogInsert(i8 noundef zeroext 14, i8 noundef zeroext 48)
  store i64 %82, ptr %16, align 8
  %83 = load i64, ptr %16, align 8
  call void @llvm.lifetime.end.p0(i64 4, ptr %17) #6
  call void @llvm.lifetime.end.p0(i64 8, ptr %16) #6
  call void @llvm.lifetime.end.p0(i64 4, ptr %15) #6
  call void @llvm.lifetime.end.p0(i64 8, ptr %14) #6
  call void @llvm.lifetime.end.p0(i64 24, ptr %13) #6
  ret i64 %83
}