; Function Attrs: nounwind uwtable
define dso_local i64 @gistXLogSplit(i1 noundef zeroext %0, ptr noundef %1, i32 noundef %2, i64 noundef %3, i32 noundef %4, i1 noundef zeroext %5) local_unnamed_addr #0 {
  %7 = alloca %struct.gistxlogPageSplit, align 8
  %8 = zext i1 %0 to i8
  %9 = zext i1 %5 to i8
  call void @llvm.lifetime.start.p0(i64 24, ptr nonnull %7) #6
  %.not26 = icmp eq ptr %1, null
  br i1 %.not26, label %._crit_edge, label %.lr.ph

.lr.ph:                                           ; preds = %6, %.lr.ph
  %.02228 = phi ptr [ %12, %.lr.ph ], [ %1, %6 ]
  %.02327 = phi i16 [ %10, %.lr.ph ], [ 0, %6 ]
  %10 = add i16 %.02327, 1
  %11 = getelementptr inbounds nuw i8, ptr %.02228, i64 48
  %12 = load ptr, ptr %11, align 8
  %.not = icmp eq ptr %12, null
  br i1 %.not, label %._crit_edge, label %.lr.ph, !llvm.loop !10

._crit_edge:                                      ; preds = %.lr.ph, %6
  %.023.lcssa = phi i16 [ 0, %6 ], [ %10, %.lr.ph ]
  store i32 %2, ptr %7, align 8
  %13 = getelementptr inbounds nuw i8, ptr %7, i64 8
  store i64 %3, ptr %13, align 8
  %14 = getelementptr inbounds nuw i8, ptr %7, i64 16
  store i8 %8, ptr %14, align 8
  %15 = getelementptr inbounds nuw i8, ptr %7, i64 18
  store i16 %.023.lcssa, ptr %15, align 2
  %16 = getelementptr inbounds nuw i8, ptr %7, i64 20
  store i8 %9, ptr %16, align 4
  tail call void @XLogBeginInsert() #6
  %.not25 = icmp eq i32 %4, 0
  br i1 %.not25, label %18, label %17

17:                                               ; preds = %._crit_edge
  tail call void @XLogRegisterBuffer(i8 noundef zeroext 0, i32 noundef %4, i8 noundef zeroext 8) #6
  br label %18

18:                                               ; preds = %17, %._crit_edge
  call void @XLogRegisterData(ptr noundef nonnull %7, i32 noundef 24) #6
  br i1 %.not26, label %._crit_edge34, label %.lr.ph33

.lr.ph33:                                         ; preds = %18, %.lr.ph33
  %.031 = phi i8 [ %26, %.lr.ph33 ], [ 1, %18 ]
  %.130 = phi ptr [ %28, %.lr.ph33 ], [ %1, %18 ]
  %19 = getelementptr inbounds nuw i8, ptr %.130, i64 40
  %20 = load i32, ptr %19, align 8
  call void @XLogRegisterBuffer(i8 noundef zeroext %.031, i32 noundef %20, i8 noundef zeroext 6) #6
  %21 = getelementptr inbounds nuw i8, ptr %.130, i64 4
  call void @XLogRegisterBufData(i8 noundef zeroext %.031, ptr noundef nonnull %21, i32 noundef 4) #6
  %22 = getelementptr inbounds nuw i8, ptr %.130, i64 8
  %23 = load ptr, ptr %22, align 8
  %24 = getelementptr inbounds nuw i8, ptr %.130, i64 16
  %25 = load i32, ptr %24, align 8
  call void @XLogRegisterBufData(i8 noundef zeroext %.031, ptr noundef %23, i32 noundef %25) #6
  %26 = add i8 %.031, 1
  %27 = getelementptr inbounds nuw i8, ptr %.130, i64 48
  %28 = load ptr, ptr %27, align 8
  %.not24 = icmp eq ptr %28, null
  br i1 %.not24, label %._crit_edge34, label %.lr.ph33, !llvm.loop !11

._crit_edge34:                                    ; preds = %.lr.ph33, %18
  %29 = call i64 @XLogInsert(i8 noundef zeroext 14, i8 noundef zeroext 48) #6
  call void @llvm.lifetime.end.p0(i64 24, ptr nonnull %7) #6
  ret i64 %29
}